; Function Attrs: mustprogress nofree norecurse nosync nounwind willreturn memory(read, inaccessiblemem: none) uwtable
define noundef double @_ZNK8QuantLib6detail14GsrProcessCore10cappedTimeEmd(ptr nocapture noundef nonnull readonly align 8 dereferenceable(360) %this, i64 noundef %index, double noundef %cap) local_unnamed_addr #7 align 2 {
entry:
  %cmp = fcmp une double %cap, 0x47EFFFFFE0000000
  %cmp.i = icmp eq i64 %index, 0
  br i1 %cmp, label %cond.true, label %cond.false

cond.true:                                        ; preds = %entry
  br i1 %cmp.i, label %_ZNK8QuantLib6detail14GsrProcessCore5time2Em.exit, label %if.end.i

if.end.i:                                         ; preds = %cond.true
  %0 = load ptr, ptr %this, align 8, !tbaa !47
  %n_.i.i = getelementptr inbounds nuw i8, ptr %0, i64 8
  %1 = load i64, ptr %n_.i.i, align 8, !tbaa !36
  %cmp2.i = icmp ugt i64 %index, %1
  br i1 %cmp2.i, label %if.then3.i, label %if.end4.i

if.then3.i:                                       ; preds = %if.end.i
  %T_.i = getelementptr inbounds nuw i8, ptr %this, i64 312
  br label %return.sink.split.i

if.end4.i:                                        ; preds = %if.end.i
  %2 = load ptr, ptr %0, align 8, !tbaa !3
  %3 = getelementptr double, ptr %2, i64 %index
  %arrayidx.i.i = getelementptr i8, ptr %3, i64 -8
  br label %return.sink.split.i

return.sink.split.i:                              ; preds = %if.end4.i, %if.then3.i
  %arrayidx.i.sink.i = phi ptr [ %arrayidx.i.i, %if.end4.i ], [ %T_.i, %if.then3.i ]
  %4 = load double, ptr %arrayidx.i.sink.i, align 8, !tbaa !53
  br label %_ZNK8QuantLib6detail14GsrProcessCore5time2Em.exit

_ZNK8QuantLib6detail14GsrProcessCore5time2Em.exit: ; preds = %cond.true, %return.sink.split.i
  %retval.0.i = phi double [ 0.000000e+00, %cond.true ], [ %4, %return.sink.split.i ]
  %cmp.i2 = fcmp olt double %retval.0.i, %cap
  %.sroa.speculated = select i1 %cmp.i2, double %retval.0.i, double %cap
  br label %cond.end

cond.false:                                       ; preds = %entry
  br i1 %cmp.i, label %cond.end, label %if.end.i4

if.end.i4:                                        ; preds = %cond.false
  %5 = load ptr, ptr %this, align 8, !tbaa !47
  %n_.i.i5 = getelementptr inbounds nuw i8, ptr %5, i64 8
  %6 = load i64, ptr %n_.i.i5, align 8, !tbaa !36
  %cmp2.i6 = icmp ugt i64 %index, %6
  br i1 %cmp2.i6, label %if.then3.i12, label %if.end4.i7

if.then3.i12:                                     ; preds = %if.end.i4
  %T_.i13 = getelementptr inbounds nuw i8, ptr %this, i64 312
  br label %return.sink.split.i9

if.end4.i7:                                       ; preds = %if.end.i4
  %7 = load ptr, ptr %5, align 8, !tbaa !3
  %8 = getelementptr double, ptr %7, i64 %index
  %arrayidx.i.i8 = getelementptr i8, ptr %8, i64 -8
  br label %return.sink.split.i9

return.sink.split.i9:                             ; preds = %if.end4.i7, %if.then3.i12
  %arrayidx.i.sink.i10 = phi ptr [ %arrayidx.i.i8, %if.end4.i7 ], [ %T_.i13, %if.then3.i12 ]
  %9 = load double, ptr %arrayidx.i.sink.i10, align 8, !tbaa !53
  br label %cond.end

cond.end:                                         ; preds = %return.sink.split.i9, %cond.false, %_ZNK8QuantLib6detail14GsrProcessCore5time2Em.exit
  %cond = phi double [ %.sroa.speculated, %_ZNK8QuantLib6detail14GsrProcessCore5time2Em.exit ], [ 0.000000e+00, %cond.false ], [ %9, %return.sink.split.i9 ]
  ret double %cond
}